
build/app.elf:     file format elf32-littlearm


Disassembly of section .text:

000e1000 <init>:
   e1000:	4a08      	ldr	r2, [pc, #32]	@ (e1024 <init+0x24>)
   e1002:	4b09      	ldr	r3, [pc, #36]	@ (e1028 <init+0x28>)
   e1004:	4909      	ldr	r1, [pc, #36]	@ (e102c <init+0x2c>)
   e1006:	428b      	cmp	r3, r1
   e1008:	d307      	bcc.n	e101a <init+0x1a>
   e100a:	2200      	movs	r2, #0
   e100c:	4b08      	ldr	r3, [pc, #32]	@ (e1030 <init+0x30>)
   e100e:	4909      	ldr	r1, [pc, #36]	@ (e1034 <init+0x34>)
   e1010:	428b      	cmp	r3, r1
   e1012:	d305      	bcc.n	e1020 <init+0x20>
   e1014:	4b08      	ldr	r3, [pc, #32]	@ (e1038 <init+0x38>)
   e1016:	601a      	str	r2, [r3, #0]
   e1018:	4770      	bx	lr
   e101a:	ca01      	ldmia	r2!, {r0}
   e101c:	c301      	stmia	r3!, {r0}
   e101e:	e7f2      	b.n	e1006 <init+0x6>
   e1020:	c304      	stmia	r3!, {r2}
   e1022:	e7f5      	b.n	e1010 <init+0x10>
   e1024:	000e1710 	andeq	r1, lr, r0, lsl r7
   e1028:	00805e04 	addeq	r5, r0, r4, lsl #28
   e102c:	00805e08 	addeq	r5, r0, r8, lsl #28
   e1030:	00805e08 	addeq	r5, r0, r8, lsl #28
   e1034:	00806024 	addeq	r6, r0, r4, lsr #32
   e1038:	02002fb8 	andeq	r2, r0, #184, 30	@ 0x2e0

000e103c <md_get_name>:
   e103c:	b5f0      	push	{r4, r5, r6, r7, lr}
   e103e:	2400      	movs	r4, #0
   e1040:	0015      	movs	r5, r2
   e1042:	223c      	movs	r2, #60	@ 0x3c
   e1044:	001f      	movs	r7, r3
   e1046:	4b18      	ldr	r3, [pc, #96]	@ (e10a8 <md_get_name+0x6c>)
   e1048:	b08f      	sub	sp, #60	@ 0x3c
   e104a:	9309      	str	r3, [sp, #36]	@ 0x24
   e104c:	601c      	str	r4, [r3, #0]
   e104e:	ab0d      	add	r3, sp, #52	@ 0x34
   e1050:	9305      	str	r3, [sp, #20]
   e1052:	ab0c      	add	r3, sp, #48	@ 0x30
   e1054:	9304      	str	r3, [sp, #16]
   e1056:	ab0b      	add	r3, sp, #44	@ 0x2c
   e1058:	9303      	str	r3, [sp, #12]
   e105a:	ab0a      	add	r3, sp, #40	@ 0x28
   e105c:	9106      	str	r1, [sp, #24]
   e105e:	9302      	str	r3, [sp, #8]
   e1060:	9201      	str	r2, [sp, #4]
   e1062:	0023      	movs	r3, r4
   e1064:	0021      	movs	r1, r4
   e1066:	940a      	str	r4, [sp, #40]	@ 0x28
   e1068:	940b      	str	r4, [sp, #44]	@ 0x2c
   e106a:	940c      	str	r4, [sp, #48]	@ 0x30
   e106c:	940d      	str	r4, [sp, #52]	@ 0x34
   e106e:	9407      	str	r4, [sp, #28]
   e1070:	9500      	str	r5, [sp, #0]
   e1072:	4e0e      	ldr	r6, [pc, #56]	@ (e10ac <md_get_name+0x70>)
   e1074:	f000 f81c 	bl	e10b0 <md_get_name+0x74>
   e1078:	2301      	movs	r3, #1
   e107a:	9a09      	ldr	r2, [sp, #36]	@ 0x24
   e107c:	0028      	movs	r0, r5
   e107e:	6013      	str	r3, [r2, #0]
   e1080:	42a5      	cmp	r5, r4
   e1082:	d004      	beq.n	e108e <md_get_name+0x52>
   e1084:	0020      	movs	r0, r4
   e1086:	2258      	movs	r2, #88	@ 0x58
   e1088:	5c2b      	ldrb	r3, [r5, r0]
   e108a:	2b00      	cmp	r3, #0
   e108c:	d106      	bne.n	e109c <md_get_name+0x60>
   e108e:	683b      	ldr	r3, [r7, #0]
   e1090:	181b      	adds	r3, r3, r0
   e1092:	603b      	str	r3, [r7, #0]
   e1094:	b00f      	add	sp, #60	@ 0x3c
   e1096:	bcf0      	pop	{r4, r5, r6, r7}
   e1098:	bc02      	pop	{r1}
   e109a:	4708      	bx	r1
   e109c:	3b20      	subs	r3, #32
   e109e:	2b5e      	cmp	r3, #94	@ 0x5e
   e10a0:	d900      	bls.n	e10a4 <md_get_name+0x68>
   e10a2:	542a      	strb	r2, [r5, r0]
   e10a4:	3001      	adds	r0, #1
   e10a6:	e7ef      	b.n	e1088 <md_get_name+0x4c>
   e10a8:	00805e04 	addeq	r5, r0, r4, lsl #28
   e10ac:	0003060d 	andeq	r0, r3, sp, lsl #12
   e10b0:	4730      	bx	r6
   e10b2:	46c0      	nop			@ (mov r8, r8)

000e10b4 <himd_get_name>:
   e10b4:	b5f0      	push	{r4, r5, r6, r7, lr}
   e10b6:	b089      	sub	sp, #36	@ 0x24
   e10b8:	0014      	movs	r4, r2
   e10ba:	9205      	str	r2, [sp, #20]
   e10bc:	223c      	movs	r2, #60	@ 0x3c
   e10be:	0007      	movs	r7, r0
   e10c0:	2600      	movs	r6, #0
   e10c2:	001d      	movs	r5, r3
   e10c4:	2301      	movs	r3, #1
   e10c6:	a805      	add	r0, sp, #20
   e10c8:	80c2      	strh	r2, [r0, #6]
   e10ca:	3a37      	subs	r2, #55	@ 0x37
   e10cc:	8087      	strh	r7, [r0, #4]
   e10ce:	7201      	strb	r1, [r0, #8]
   e10d0:	7242      	strb	r2, [r0, #9]
   e10d2:	8143      	strh	r3, [r0, #10]
   e10d4:	9303      	str	r3, [sp, #12]
   e10d6:	9602      	str	r6, [sp, #8]
   e10d8:	9604      	str	r6, [sp, #16]
   e10da:	9600      	str	r6, [sp, #0]
   e10dc:	4f0d      	ldr	r7, [pc, #52]	@ (e1114 <himd_get_name+0x60>)
   e10de:	ab04      	add	r3, sp, #16
   e10e0:	aa03      	add	r2, sp, #12
   e10e2:	a902      	add	r1, sp, #8
   e10e4:	f000 f818 	bl	e1118 <himd_get_name+0x64>
   e10e8:	0020      	movs	r0, r4
   e10ea:	42b4      	cmp	r4, r6
   e10ec:	d004      	beq.n	e10f8 <himd_get_name+0x44>
   e10ee:	0030      	movs	r0, r6
   e10f0:	2258      	movs	r2, #88	@ 0x58
   e10f2:	5c23      	ldrb	r3, [r4, r0]
   e10f4:	2b00      	cmp	r3, #0
   e10f6:	d106      	bne.n	e1106 <himd_get_name+0x52>
   e10f8:	682b      	ldr	r3, [r5, #0]
   e10fa:	181b      	adds	r3, r3, r0
   e10fc:	602b      	str	r3, [r5, #0]
   e10fe:	b009      	add	sp, #36	@ 0x24
   e1100:	bcf0      	pop	{r4, r5, r6, r7}
   e1102:	bc02      	pop	{r1}
   e1104:	4708      	bx	r1
   e1106:	3b20      	subs	r3, #32
   e1108:	2b5e      	cmp	r3, #94	@ 0x5e
   e110a:	d900      	bls.n	e110e <himd_get_name+0x5a>
   e110c:	5422      	strb	r2, [r4, r0]
   e110e:	3001      	adds	r0, #1
   e1110:	e7ef      	b.n	e10f2 <himd_get_name+0x3e>
   e1112:	46c0      	nop			@ (mov r8, r8)
   e1114:	00031769 	andeq	r1, r3, r9, ror #14
   e1118:	4738      	bx	r7
   e111a:	46c0      	nop			@ (mov r8, r8)

000e111c <make_track_string>:
   e111c:	b5f0      	push	{r4, r5, r6, r7, lr}
   e111e:	0004      	movs	r4, r0
   e1120:	000a      	movs	r2, r1
   e1122:	0023      	movs	r3, r4
   e1124:	2100      	movs	r1, #0
   e1126:	3001      	adds	r0, #1
   e1128:	b085      	sub	sp, #20
   e112a:	30ff      	adds	r0, #255	@ 0xff
   e112c:	7019      	strb	r1, [r3, #0]
   e112e:	3301      	adds	r3, #1
   e1130:	4298      	cmp	r0, r3
   e1132:	d1fb      	bne.n	e112c <make_track_string+0x10>
   e1134:	4b70      	ldr	r3, [pc, #448]	@ (e12f8 <make_track_string+0x1dc>)
   e1136:	9103      	str	r1, [sp, #12]
   e1138:	881e      	ldrh	r6, [r3, #0]
   e113a:	4b70      	ldr	r3, [pc, #448]	@ (e12fc <make_track_string+0x1e0>)
   e113c:	681d      	ldr	r5, [r3, #0]
   e113e:	2a01      	cmp	r2, #1
   e1140:	d12d      	bne.n	e119e <make_track_string+0x82>
   e1142:	9200      	str	r2, [sp, #0]
   e1144:	2300      	movs	r3, #0
   e1146:	0021      	movs	r1, r4
   e1148:	0030      	movs	r0, r6
   e114a:	4f6d      	ldr	r7, [pc, #436]	@ (e1300 <make_track_string+0x1e4>)
   e114c:	f000 f8e3 	bl	e1316 <make_track_string+0x1fa>
   e1150:	4b6c      	ldr	r3, [pc, #432]	@ (e1304 <make_track_string+0x1e8>)
   e1152:	0020      	movs	r0, r4
   e1154:	f000 f8de 	bl	e1314 <make_track_string+0x1f8>
   e1158:	2320      	movs	r3, #32
   e115a:	1c42      	adds	r2, r0, #1
   e115c:	9203      	str	r2, [sp, #12]
   e115e:	5423      	strb	r3, [r4, r0]
   e1160:	18a2      	adds	r2, r4, r2
   e1162:	ab03      	add	r3, sp, #12
   e1164:	2d00      	cmp	r5, #0
   e1166:	d115      	bne.n	e1194 <make_track_string+0x78>
   e1168:	0029      	movs	r1, r5
   e116a:	0030      	movs	r0, r6
   e116c:	f7ff ffa2 	bl	e10b4 <himd_get_name>
   e1170:	2220      	movs	r2, #32
   e1172:	9b03      	ldr	r3, [sp, #12]
   e1174:	1d98      	adds	r0, r3, #6
   e1176:	54e2      	strb	r2, [r4, r3]
   e1178:	3301      	adds	r3, #1
   e117a:	4283      	cmp	r3, r0
   e117c:	d1fb      	bne.n	e1176 <make_track_string+0x5a>
   e117e:	2300      	movs	r3, #0
   e1180:	2220      	movs	r2, #32
   e1182:	4283      	cmp	r3, r0
   e1184:	d200      	bcs.n	e1188 <make_track_string+0x6c>
   e1186:	e0b1      	b.n	e12ec <make_track_string+0x1d0>
   e1188:	2300      	movs	r3, #0
   e118a:	5423      	strb	r3, [r4, r0]
   e118c:	b005      	add	sp, #20
   e118e:	bcf0      	pop	{r4, r5, r6, r7}
   e1190:	bc02      	pop	{r1}
   e1192:	4708      	bx	r1
   e1194:	2100      	movs	r1, #0
   e1196:	0030      	movs	r0, r6
   e1198:	f7ff ff50 	bl	e103c <md_get_name>
   e119c:	e7e8      	b.n	e1170 <make_track_string+0x54>
   e119e:	2386      	movs	r3, #134	@ 0x86
   e11a0:	2720      	movs	r7, #32
   e11a2:	7023      	strb	r3, [r4, #0]
   e11a4:	3301      	adds	r3, #1
   e11a6:	7063      	strb	r3, [r4, #1]
   e11a8:	3b84      	subs	r3, #132	@ 0x84
   e11aa:	9303      	str	r3, [sp, #12]
   e11ac:	70a7      	strb	r7, [r4, #2]
   e11ae:	2d00      	cmp	r5, #0
   e11b0:	d02c      	beq.n	e120c <make_track_string+0xf0>
   e11b2:	9a03      	ldr	r2, [sp, #12]
   e11b4:	3a03      	subs	r2, #3
   e11b6:	2384      	movs	r3, #132	@ 0x84
   e11b8:	2185      	movs	r1, #133	@ 0x85
   e11ba:	2720      	movs	r7, #32
   e11bc:	54a3      	strb	r3, [r4, r2]
   e11be:	18a3      	adds	r3, r4, r2
   e11c0:	3203      	adds	r2, #3
   e11c2:	7059      	strb	r1, [r3, #1]
   e11c4:	9203      	str	r2, [sp, #12]
   e11c6:	709f      	strb	r7, [r3, #2]
   e11c8:	2d00      	cmp	r5, #0
   e11ca:	d02d      	beq.n	e1228 <make_track_string+0x10c>
   e11cc:	9a03      	ldr	r2, [sp, #12]
   e11ce:	3a03      	subs	r2, #3
   e11d0:	23aa      	movs	r3, #170	@ 0xaa
   e11d2:	21ab      	movs	r1, #171	@ 0xab
   e11d4:	54a3      	strb	r3, [r4, r2]
   e11d6:	18a3      	adds	r3, r4, r2
   e11d8:	7059      	strb	r1, [r3, #1]
   e11da:	3203      	adds	r2, #3
   e11dc:	398b      	subs	r1, #139	@ 0x8b
   e11de:	9203      	str	r2, [sp, #12]
   e11e0:	7099      	strb	r1, [r3, #2]
   e11e2:	18a7      	adds	r7, r4, r2
   e11e4:	2d00      	cmp	r5, #0
   e11e6:	d12d      	bne.n	e1244 <make_track_string+0x128>
   e11e8:	4b47      	ldr	r3, [pc, #284]	@ (e1308 <make_track_string+0x1ec>)
   e11ea:	0030      	movs	r0, r6
   e11ec:	f000 f892 	bl	e1314 <make_track_string+0x1f8>
   e11f0:	003a      	movs	r2, r7
   e11f2:	2103      	movs	r1, #3
   e11f4:	ab03      	add	r3, sp, #12
   e11f6:	f7ff ff5d 	bl	e10b4 <himd_get_name>
   e11fa:	9a03      	ldr	r2, [sp, #12]
   e11fc:	18a3      	adds	r3, r4, r2
   e11fe:	2800      	cmp	r0, #0
   e1200:	d024      	beq.n	e124c <make_track_string+0x130>
   e1202:	2120      	movs	r1, #32
   e1204:	3202      	adds	r2, #2
   e1206:	7019      	strb	r1, [r3, #0]
   e1208:	7059      	strb	r1, [r3, #1]
   e120a:	e021      	b.n	e1250 <make_track_string+0x134>
   e120c:	1ce2      	adds	r2, r4, #3
   e120e:	ab03      	add	r3, sp, #12
   e1210:	2102      	movs	r1, #2
   e1212:	0030      	movs	r0, r6
   e1214:	f7ff ff4e 	bl	e10b4 <himd_get_name>
   e1218:	9a03      	ldr	r2, [sp, #12]
   e121a:	18a3      	adds	r3, r4, r2
   e121c:	2800      	cmp	r0, #0
   e121e:	d0c8      	beq.n	e11b2 <make_track_string+0x96>
   e1220:	701f      	strb	r7, [r3, #0]
   e1222:	705f      	strb	r7, [r3, #1]
   e1224:	3202      	adds	r2, #2
   e1226:	e7c6      	b.n	e11b6 <make_track_string+0x9a>
   e1228:	18a2      	adds	r2, r4, r2
   e122a:	ab03      	add	r3, sp, #12
   e122c:	2101      	movs	r1, #1
   e122e:	0030      	movs	r0, r6
   e1230:	f7ff ff40 	bl	e10b4 <himd_get_name>
   e1234:	9a03      	ldr	r2, [sp, #12]
   e1236:	18a3      	adds	r3, r4, r2
   e1238:	2800      	cmp	r0, #0
   e123a:	d0c7      	beq.n	e11cc <make_track_string+0xb0>
   e123c:	701f      	strb	r7, [r3, #0]
   e123e:	705f      	strb	r7, [r3, #1]
   e1240:	3202      	adds	r2, #2
   e1242:	e7c5      	b.n	e11d0 <make_track_string+0xb4>
   e1244:	4b31      	ldr	r3, [pc, #196]	@ (e130c <make_track_string+0x1f0>)
   e1246:	881b      	ldrh	r3, [r3, #0]
   e1248:	2b00      	cmp	r3, #0
   e124a:	d13d      	bne.n	e12c8 <make_track_string+0x1ac>
   e124c:	9a03      	ldr	r2, [sp, #12]
   e124e:	3a03      	subs	r2, #3
   e1250:	23ba      	movs	r3, #186	@ 0xba
   e1252:	21bb      	movs	r1, #187	@ 0xbb
   e1254:	54a3      	strb	r3, [r4, r2]
   e1256:	18a3      	adds	r3, r4, r2
   e1258:	7059      	strb	r1, [r3, #1]
   e125a:	3203      	adds	r2, #3
   e125c:	399b      	subs	r1, #155	@ 0x9b
   e125e:	9203      	str	r2, [sp, #12]
   e1260:	7099      	strb	r1, [r3, #2]
   e1262:	18a2      	adds	r2, r4, r2
   e1264:	ab03      	add	r3, sp, #12
   e1266:	2d00      	cmp	r5, #0
   e1268:	d135      	bne.n	e12d6 <make_track_string+0x1ba>
   e126a:	0028      	movs	r0, r5
   e126c:	391c      	subs	r1, #28
   e126e:	f7ff ff21 	bl	e10b4 <himd_get_name>
   e1272:	9b03      	ldr	r3, [sp, #12]
   e1274:	2800      	cmp	r0, #0
   e1276:	d133      	bne.n	e12e0 <make_track_string+0x1c4>
   e1278:	1ed8      	subs	r0, r3, #3
   e127a:	0022      	movs	r2, r4
   e127c:	1821      	adds	r1, r4, r0
   e127e:	320a      	adds	r2, #10
   e1280:	1812      	adds	r2, r2, r0
   e1282:	000b      	movs	r3, r1
   e1284:	2000      	movs	r0, #0
   e1286:	7018      	strb	r0, [r3, #0]
   e1288:	3301      	adds	r3, #1
   e128a:	4293      	cmp	r3, r2
   e128c:	d1fb      	bne.n	e1286 <make_track_string+0x16a>
   e128e:	2601      	movs	r6, #1
   e1290:	4d1f      	ldr	r5, [pc, #124]	@ (e1310 <make_track_string+0x1f4>)
   e1292:	9600      	str	r6, [sp, #0]
   e1294:	0032      	movs	r2, r6
   e1296:	2300      	movs	r3, #0
   e1298:	4f19      	ldr	r7, [pc, #100]	@ (e1300 <make_track_string+0x1e4>)
   e129a:	68a8      	ldr	r0, [r5, #8]
   e129c:	f000 f83b 	bl	e1316 <make_track_string+0x1fa>
   e12a0:	4b18      	ldr	r3, [pc, #96]	@ (e1304 <make_track_string+0x1e8>)
   e12a2:	0020      	movs	r0, r4
   e12a4:	f000 f836 	bl	e1314 <make_track_string+0x1f8>
   e12a8:	233a      	movs	r3, #58	@ 0x3a
   e12aa:	5423      	strb	r3, [r4, r0]
   e12ac:	9600      	str	r6, [sp, #0]
   e12ae:	1980      	adds	r0, r0, r6
   e12b0:	1821      	adds	r1, r4, r0
   e12b2:	2300      	movs	r3, #0
   e12b4:	0032      	movs	r2, r6
   e12b6:	68e8      	ldr	r0, [r5, #12]
   e12b8:	f000 f82d 	bl	e1316 <make_track_string+0x1fa>
   e12bc:	0020      	movs	r0, r4
   e12be:	4b11      	ldr	r3, [pc, #68]	@ (e1304 <make_track_string+0x1e8>)
   e12c0:	f000 f828 	bl	e1314 <make_track_string+0x1f8>
   e12c4:	9003      	str	r0, [sp, #12]
   e12c6:	e753      	b.n	e1170 <make_track_string+0x54>
   e12c8:	003a      	movs	r2, r7
   e12ca:	2103      	movs	r1, #3
   e12cc:	0030      	movs	r0, r6
   e12ce:	ab03      	add	r3, sp, #12
   e12d0:	f7ff feb4 	bl	e103c <md_get_name>
   e12d4:	e791      	b.n	e11fa <make_track_string+0xde>
   e12d6:	2100      	movs	r1, #0
   e12d8:	0008      	movs	r0, r1
   e12da:	f7ff feaf 	bl	e103c <md_get_name>
   e12de:	e7c8      	b.n	e1272 <make_track_string+0x156>
   e12e0:	2220      	movs	r2, #32
   e12e2:	1c98      	adds	r0, r3, #2
   e12e4:	54e2      	strb	r2, [r4, r3]
   e12e6:	18e3      	adds	r3, r4, r3
   e12e8:	705a      	strb	r2, [r3, #1]
   e12ea:	e7c6      	b.n	e127a <make_track_string+0x15e>
   e12ec:	5ce1      	ldrb	r1, [r4, r3]
   e12ee:	2900      	cmp	r1, #0
   e12f0:	d100      	bne.n	e12f4 <make_track_string+0x1d8>
   e12f2:	54e2      	strb	r2, [r4, r3]
   e12f4:	3301      	adds	r3, #1
   e12f6:	e744      	b.n	e1182 <make_track_string+0x66>
   e12f8:	008020f0 			@ <UNDEFINED> instruction: 0x008020f0
   e12fc:	00800654 	addeq	r0, r0, r4, asr r6
   e1300:	000b6171 	andeq	r6, fp, r1, ror r1
   e1304:	000b8071 	andeq	r8, fp, r1, ror r0
   e1308:	0006f967 	andeq	pc, r6, r7, ror #18
   e130c:	008020f8 			@ <UNDEFINED> instruction: 0x008020f8
   e1310:	00805e08 	addeq	r5, r0, r8, lsl #28
   e1314:	4718      	bx	r3
   e1316:	4738      	bx	r7

000e1318 <decode_katakana_name>:
   e1318:	b5f0      	push	{r4, r5, r6, r7, lr}
   e131a:	0004      	movs	r4, r0
   e131c:	481b      	ldr	r0, [pc, #108]	@ (e138c <decode_katakana_name+0x74>)
   e131e:	6800      	ldr	r0, [r0, #0]
   e1320:	b089      	sub	sp, #36	@ 0x24
   e1322:	9f0e      	ldr	r7, [sp, #56]	@ 0x38
   e1324:	9e0f      	ldr	r6, [sp, #60]	@ 0x3c
   e1326:	9d13      	ldr	r5, [sp, #76]	@ 0x4c
   e1328:	2800      	cmp	r0, #0
   e132a:	d02d      	beq.n	e1388 <decode_katakana_name+0x70>
   e132c:	9815      	ldr	r0, [sp, #84]	@ 0x54
   e132e:	9007      	str	r0, [sp, #28]
   e1330:	9814      	ldr	r0, [sp, #80]	@ 0x50
   e1332:	9006      	str	r0, [sp, #24]
   e1334:	9812      	ldr	r0, [sp, #72]	@ 0x48
   e1336:	9004      	str	r0, [sp, #16]
   e1338:	9811      	ldr	r0, [sp, #68]	@ 0x44
   e133a:	9003      	str	r0, [sp, #12]
   e133c:	9810      	ldr	r0, [sp, #64]	@ 0x40
   e133e:	9505      	str	r5, [sp, #20]
   e1340:	9002      	str	r0, [sp, #8]
   e1342:	9601      	str	r6, [sp, #4]
   e1344:	0020      	movs	r0, r4
   e1346:	9700      	str	r7, [sp, #0]
   e1348:	4c11      	ldr	r4, [pc, #68]	@ (e1390 <decode_katakana_name+0x78>)
   e134a:	f000 f823 	bl	e1394 <decode_katakana_name+0x7c>
   e134e:	b009      	add	sp, #36	@ 0x24
   e1350:	bcf0      	pop	{r4, r5, r6, r7}
   e1352:	bc02      	pop	{r1}
   e1354:	4708      	bx	r1
   e1356:	2a5e      	cmp	r2, #94	@ 0x5e
   e1358:	d002      	beq.n	e1360 <decode_katakana_name+0x48>
   e135a:	700a      	strb	r2, [r1, #0]
   e135c:	3301      	adds	r3, #1
   e135e:	3101      	adds	r1, #1
   e1360:	3401      	adds	r4, #1
   e1362:	7822      	ldrb	r2, [r4, #0]
   e1364:	2a00      	cmp	r2, #0
   e1366:	d1f6      	bne.n	e1356 <decode_katakana_name+0x3e>
   e1368:	6839      	ldr	r1, [r7, #0]
   e136a:	18c9      	adds	r1, r1, r3
   e136c:	6039      	str	r1, [r7, #0]
   e136e:	6831      	ldr	r1, [r6, #0]
   e1370:	18c9      	adds	r1, r1, r3
   e1372:	6031      	str	r1, [r6, #0]
   e1374:	6829      	ldr	r1, [r5, #0]
   e1376:	18c9      	adds	r1, r1, r3
   e1378:	6029      	str	r1, [r5, #0]
   e137a:	9914      	ldr	r1, [sp, #80]	@ 0x50
   e137c:	600a      	str	r2, [r1, #0]
   e137e:	9911      	ldr	r1, [sp, #68]	@ 0x44
   e1380:	600b      	str	r3, [r1, #0]
   e1382:	9b12      	ldr	r3, [sp, #72]	@ 0x48
   e1384:	601a      	str	r2, [r3, #0]
   e1386:	e7e2      	b.n	e134e <decode_katakana_name+0x36>
   e1388:	0003      	movs	r3, r0
   e138a:	e7ea      	b.n	e1362 <decode_katakana_name+0x4a>
   e138c:	00805e04 	addeq	r5, r0, r4, lsl #28
   e1390:	00030b61 	andeq	r0, r3, r1, ror #22
   e1394:	4720      	bx	r4
   e1396:	46c0      	nop			@ (mov r8, r8)

000e1398 <track_title_renderer>:
   e1398:	b5f0      	push	{r4, r5, r6, r7, lr}
   e139a:	0008      	movs	r0, r1
   e139c:	b089      	sub	sp, #36	@ 0x24
   e139e:	4b6a      	ldr	r3, [pc, #424]	@ (e1548 <track_title_renderer+0x1b0>)
   e13a0:	000d      	movs	r5, r1
   e13a2:	f000 f8e7 	bl	e1574 <track_title_renderer+0x1dc>
   e13a6:	4b69      	ldr	r3, [pc, #420]	@ (e154c <track_title_renderer+0x1b4>)
   e13a8:	9004      	str	r0, [sp, #16]
   e13aa:	0028      	movs	r0, r5
   e13ac:	f000 f8e2 	bl	e1574 <track_title_renderer+0x1dc>
   e13b0:	4c67      	ldr	r4, [pc, #412]	@ (e1550 <track_title_renderer+0x1b8>)
   e13b2:	4b68      	ldr	r3, [pc, #416]	@ (e1554 <track_title_renderer+0x1bc>)
   e13b4:	6822      	ldr	r2, [r4, #0]
   e13b6:	429a      	cmp	r2, r3
   e13b8:	d00b      	beq.n	e13d2 <track_title_renderer+0x3a>
   e13ba:	6023      	str	r3, [r4, #0]
   e13bc:	2301      	movs	r3, #1
   e13be:	425b      	negs	r3, r3
   e13c0:	6063      	str	r3, [r4, #4]
   e13c2:	60a3      	str	r3, [r4, #8]
   e13c4:	60e3      	str	r3, [r4, #12]
   e13c6:	330f      	adds	r3, #15
   e13c8:	7463      	strb	r3, [r4, #17]
   e13ca:	0023      	movs	r3, r4
   e13cc:	2212      	movs	r2, #18
   e13ce:	33ff      	adds	r3, #255	@ 0xff
   e13d0:	75da      	strb	r2, [r3, #23]
   e13d2:	ab07      	add	r3, sp, #28
   e13d4:	2100      	movs	r1, #0
   e13d6:	9300      	str	r3, [sp, #0]
   e13d8:	aa05      	add	r2, sp, #20
   e13da:	ab06      	add	r3, sp, #24
   e13dc:	2001      	movs	r0, #1
   e13de:	4e5e      	ldr	r6, [pc, #376]	@ (e1558 <track_title_renderer+0x1c0>)
   e13e0:	f000 f8c9 	bl	e1576 <track_title_renderer+0x1de>
   e13e4:	4a5d      	ldr	r2, [pc, #372]	@ (e155c <track_title_renderer+0x1c4>)
   e13e6:	6861      	ldr	r1, [r4, #4]
   e13e8:	8810      	ldrh	r0, [r2, #0]
   e13ea:	2300      	movs	r3, #0
   e13ec:	4288      	cmp	r0, r1
   e13ee:	d00b      	beq.n	e1408 <track_title_renderer+0x70>
   e13f0:	8813      	ldrh	r3, [r2, #0]
   e13f2:	0022      	movs	r2, r4
   e13f4:	6063      	str	r3, [r4, #4]
   e13f6:	2300      	movs	r3, #0
   e13f8:	32ff      	adds	r2, #255	@ 0xff
   e13fa:	7613      	strb	r3, [r2, #24]
   e13fc:	0022      	movs	r2, r4
   e13fe:	32fe      	adds	r2, #254	@ 0xfe
   e1400:	8263      	strh	r3, [r4, #18]
   e1402:	7523      	strb	r3, [r4, #20]
   e1404:	8353      	strh	r3, [r2, #26]
   e1406:	3301      	adds	r3, #1
   e1408:	9a07      	ldr	r2, [sp, #28]
   e140a:	68e1      	ldr	r1, [r4, #12]
   e140c:	4291      	cmp	r1, r2
   e140e:	d013      	beq.n	e1438 <track_title_renderer+0xa0>
   e1410:	60e2      	str	r2, [r4, #12]
   e1412:	223c      	movs	r2, #60	@ 0x3c
   e1414:	9b05      	ldr	r3, [sp, #20]
   e1416:	4353      	muls	r3, r2
   e1418:	9a06      	ldr	r2, [sp, #24]
   e141a:	189b      	adds	r3, r3, r2
   e141c:	60a3      	str	r3, [r4, #8]
   e141e:	2100      	movs	r1, #0
   e1420:	484f      	ldr	r0, [pc, #316]	@ (e1560 <track_title_renderer+0x1c8>)
   e1422:	f7ff fe7b 	bl	e111c <make_track_string>
   e1426:	2101      	movs	r1, #1
   e1428:	7420      	strb	r0, [r4, #16]
   e142a:	484e      	ldr	r0, [pc, #312]	@ (e1564 <track_title_renderer+0x1cc>)
   e142c:	f7ff fe76 	bl	e111c <make_track_string>
   e1430:	0023      	movs	r3, r4
   e1432:	33ff      	adds	r3, #255	@ 0xff
   e1434:	7598      	strb	r0, [r3, #22]
   e1436:	e001      	b.n	e143c <track_title_renderer+0xa4>
   e1438:	2b00      	cmp	r3, #0
   e143a:	d1f0      	bne.n	e141e <track_title_renderer+0x86>
   e143c:	6863      	ldr	r3, [r4, #4]
   e143e:	2b00      	cmp	r3, #0
   e1440:	dc00      	bgt.n	e1444 <track_title_renderer+0xac>
   e1442:	e077      	b.n	e1534 <track_title_renderer+0x19c>
   e1444:	2220      	movs	r2, #32
   e1446:	9b04      	ldr	r3, [sp, #16]
   e1448:	701a      	strb	r2, [r3, #0]
   e144a:	9b04      	ldr	r3, [sp, #16]
   e144c:	2d00      	cmp	r5, #0
   e144e:	d043      	beq.n	e14d8 <track_title_renderer+0x140>
   e1450:	2206      	movs	r2, #6
   e1452:	32ff      	adds	r2, #255	@ 0xff
   e1454:	436a      	muls	r2, r5
   e1456:	18a7      	adds	r7, r4, r2
   e1458:	9302      	str	r3, [sp, #8]
   e145a:	7cbb      	ldrb	r3, [r7, #18]
   e145c:	3215      	adds	r2, #21
   e145e:	1899      	adds	r1, r3, r2
   e1460:	9203      	str	r2, [sp, #12]
   e1462:	7c3e      	ldrb	r6, [r7, #16]
   e1464:	7c7a      	ldrb	r2, [r7, #17]
   e1466:	9802      	ldr	r0, [sp, #8]
   e1468:	1861      	adds	r1, r4, r1
   e146a:	1af6      	subs	r6, r6, r3
   e146c:	4296      	cmp	r6, r2
   e146e:	d20e      	bcs.n	e148e <track_title_renderer+0xf6>
   e1470:	0032      	movs	r2, r6
   e1472:	4b3d      	ldr	r3, [pc, #244]	@ (e1568 <track_title_renderer+0x1d0>)
   e1474:	9802      	ldr	r0, [sp, #8]
   e1476:	f000 f87d 	bl	e1574 <track_title_renderer+0x1dc>
   e147a:	7c3b      	ldrb	r3, [r7, #16]
   e147c:	7c7a      	ldrb	r2, [r7, #17]
   e147e:	3b06      	subs	r3, #6
   e1480:	4293      	cmp	r3, r2
   e1482:	dd07      	ble.n	e1494 <track_title_renderer+0xfc>
   e1484:	9903      	ldr	r1, [sp, #12]
   e1486:	9802      	ldr	r0, [sp, #8]
   e1488:	1b92      	subs	r2, r2, r6
   e148a:	1861      	adds	r1, r4, r1
   e148c:	1980      	adds	r0, r0, r6
   e148e:	4b36      	ldr	r3, [pc, #216]	@ (e1568 <track_title_renderer+0x1d0>)
   e1490:	f000 f870 	bl	e1574 <track_title_renderer+0x1dc>
   e1494:	2206      	movs	r2, #6
   e1496:	2100      	movs	r1, #0
   e1498:	32ff      	adds	r2, #255	@ 0xff
   e149a:	436a      	muls	r2, r5
   e149c:	18a2      	adds	r2, r4, r2
   e149e:	7c53      	ldrb	r3, [r2, #17]
   e14a0:	9802      	ldr	r0, [sp, #8]
   e14a2:	54c1      	strb	r1, [r0, r3]
   e14a4:	7d13      	ldrb	r3, [r2, #20]
   e14a6:	3301      	adds	r3, #1
   e14a8:	061b      	lsls	r3, r3, #24
   e14aa:	0e1b      	lsrs	r3, r3, #24
   e14ac:	2b02      	cmp	r3, #2
   e14ae:	d815      	bhi.n	e14dc <track_title_renderer+0x144>
   e14b0:	7513      	strb	r3, [r2, #20]
   e14b2:	2212      	movs	r2, #18
   e14b4:	9b04      	ldr	r3, [sp, #16]
   e14b6:	3361      	adds	r3, #97	@ 0x61
   e14b8:	2400      	movs	r4, #0
   e14ba:	701a      	strb	r2, [r3, #0]
   e14bc:	9b04      	ldr	r3, [sp, #16]
   e14be:	3362      	adds	r3, #98	@ 0x62
   e14c0:	0028      	movs	r0, r5
   e14c2:	701c      	strb	r4, [r3, #0]
   e14c4:	0022      	movs	r2, r4
   e14c6:	0021      	movs	r1, r4
   e14c8:	4b28      	ldr	r3, [pc, #160]	@ (e156c <track_title_renderer+0x1d4>)
   e14ca:	f000 f853 	bl	e1574 <track_title_renderer+0x1dc>
   e14ce:	0020      	movs	r0, r4
   e14d0:	b009      	add	sp, #36	@ 0x24
   e14d2:	bcf0      	pop	{r4, r5, r6, r7}
   e14d4:	bc02      	pop	{r1}
   e14d6:	4708      	bx	r1
   e14d8:	3301      	adds	r3, #1
   e14da:	e7b9      	b.n	e1450 <track_title_renderer+0xb8>
   e14dc:	7c93      	ldrb	r3, [r2, #18]
   e14de:	7511      	strb	r1, [r2, #20]
   e14e0:	2b00      	cmp	r3, #0
   e14e2:	d003      	beq.n	e14ec <track_title_renderer+0x154>
   e14e4:	7c52      	ldrb	r2, [r2, #17]
   e14e6:	3206      	adds	r2, #6
   e14e8:	4296      	cmp	r6, r2
   e14ea:	d114      	bne.n	e1516 <track_title_renderer+0x17e>
   e14ec:	2206      	movs	r2, #6
   e14ee:	32ff      	adds	r2, #255	@ 0xff
   e14f0:	436a      	muls	r2, r5
   e14f2:	18a2      	adds	r2, r4, r2
   e14f4:	7cd1      	ldrb	r1, [r2, #19]
   e14f6:	2913      	cmp	r1, #19
   e14f8:	d80d      	bhi.n	e1516 <track_title_renderer+0x17e>
   e14fa:	3101      	adds	r1, #1
   e14fc:	74d1      	strb	r1, [r2, #19]
   e14fe:	2306      	movs	r3, #6
   e1500:	33ff      	adds	r3, #255	@ 0xff
   e1502:	436b      	muls	r3, r5
   e1504:	18e4      	adds	r4, r4, r3
   e1506:	7c23      	ldrb	r3, [r4, #16]
   e1508:	7c62      	ldrb	r2, [r4, #17]
   e150a:	3b06      	subs	r3, #6
   e150c:	4293      	cmp	r3, r2
   e150e:	dcd0      	bgt.n	e14b2 <track_title_renderer+0x11a>
   e1510:	2300      	movs	r3, #0
   e1512:	74a3      	strb	r3, [r4, #18]
   e1514:	e7cd      	b.n	e14b2 <track_title_renderer+0x11a>
   e1516:	2206      	movs	r2, #6
   e1518:	2100      	movs	r1, #0
   e151a:	32ff      	adds	r2, #255	@ 0xff
   e151c:	436a      	muls	r2, r5
   e151e:	3301      	adds	r3, #1
   e1520:	18a2      	adds	r2, r4, r2
   e1522:	061b      	lsls	r3, r3, #24
   e1524:	7c10      	ldrb	r0, [r2, #16]
   e1526:	0e1b      	lsrs	r3, r3, #24
   e1528:	74d1      	strb	r1, [r2, #19]
   e152a:	7493      	strb	r3, [r2, #18]
   e152c:	4298      	cmp	r0, r3
   e152e:	d8e6      	bhi.n	e14fe <track_title_renderer+0x166>
   e1530:	7491      	strb	r1, [r2, #18]
   e1532:	e7e4      	b.n	e14fe <track_title_renderer+0x166>
   e1534:	2209      	movs	r2, #9
   e1536:	4b0c      	ldr	r3, [pc, #48]	@ (e1568 <track_title_renderer+0x1d0>)
   e1538:	9804      	ldr	r0, [sp, #16]
   e153a:	490d      	ldr	r1, [pc, #52]	@ (e1570 <track_title_renderer+0x1d8>)
   e153c:	f000 f81a 	bl	e1574 <track_title_renderer+0x1dc>
   e1540:	9b04      	ldr	r3, [sp, #16]
   e1542:	2209      	movs	r2, #9
   e1544:	3361      	adds	r3, #97	@ 0x61
   e1546:	e7b7      	b.n	e14b8 <track_title_renderer+0x120>
   e1548:	00038d6d 	andeq	r8, r3, sp, ror #26
   e154c:	000aeb1b 	andeq	lr, sl, fp, lsl fp
   e1550:	00805e08 	addeq	r5, r0, r8, lsl #28
   e1554:	deadbeef 	cdple	14, 10, cr11, cr13, cr15, {7}
   e1558:	00039c1f 	andeq	r9, r3, pc, lsl ip
   e155c:	008020f0 			@ <UNDEFINED> instruction: 0x008020f0
   e1560:	00805e1d 	addeq	r5, r0, sp, lsl lr
   e1564:	00805f22 	addeq	r5, r0, r2, lsr #30
   e1568:	000b7f09 	andeq	r7, fp, r9, lsl #30
   e156c:	000b0d6f 	andeq	r0, fp, pc, ror #26
   e1570:	000e1654 	andeq	r1, lr, r4, asr r6
   e1574:	4718      	bx	r3
   e1576:	4730      	bx	r6

000e1578 <usb_factory_set_response>:
   e1578:	4b03      	ldr	r3, [pc, #12]	@ (e1588 <usb_factory_set_response+0x10>)
   e157a:	4a04      	ldr	r2, [pc, #16]	@ (e158c <usb_factory_set_response+0x14>)
   e157c:	70d8      	strb	r0, [r3, #3]
   e157e:	6011      	str	r1, [r2, #0]
   e1580:	2209      	movs	r2, #9
   e1582:	701a      	strb	r2, [r3, #0]
   e1584:	4770      	bx	lr
   e1586:	46c0      	nop			@ (mov r8, r8)
   e1588:	0200633c 	andeq	r6, r0, #60, 6	@ 0xf0000000
   e158c:	02003448 	andeq	r3, r0, #72, 8	@ 0x48000000

000e1590 <usb_factory_set_failure>:
   e1590:	4b04      	ldr	r3, [pc, #16]	@ (e15a4 <usb_factory_set_failure+0x14>)
   e1592:	681a      	ldr	r2, [r3, #0]
   e1594:	4b04      	ldr	r3, [pc, #16]	@ (e15a8 <usb_factory_set_failure+0x18>)
   e1596:	601a      	str	r2, [r3, #0]
   e1598:	220a      	movs	r2, #10
   e159a:	4b04      	ldr	r3, [pc, #16]	@ (e15ac <usb_factory_set_failure+0x1c>)
   e159c:	701a      	strb	r2, [r3, #0]
   e159e:	32f5      	adds	r2, #245	@ 0xf5
   e15a0:	70da      	strb	r2, [r3, #3]
   e15a2:	4770      	bx	lr
   e15a4:	02003444 	andeq	r3, r0, #68, 8	@ 0x44000000
   e15a8:	02003448 	andeq	r3, r0, #72, 8	@ 0x48000000
   e15ac:	0200633c 	andeq	r6, r0, #60, 6	@ 0xf0000000

000e15b0 <cfw_factory_cmd_0x12_get_version>:
   e15b0:	b510      	push	{r4, lr}
   e15b2:	4b0b      	ldr	r3, [pc, #44]	@ (e15e0 <cfw_factory_cmd_0x12_get_version+0x30>)
   e15b4:	78da      	ldrb	r2, [r3, #3]
   e15b6:	2aff      	cmp	r2, #255	@ 0xff
   e15b8:	d10f      	bne.n	e15da <cfw_factory_cmd_0x12_get_version+0x2a>
   e15ba:	4a0a      	ldr	r2, [pc, #40]	@ (e15e4 <cfw_factory_cmd_0x12_get_version+0x34>)
   e15bc:	7812      	ldrb	r2, [r2, #0]
   e15be:	711a      	strb	r2, [r3, #4]
   e15c0:	2202      	movs	r2, #2
   e15c2:	715a      	strb	r2, [r3, #5]
   e15c4:	329e      	adds	r2, #158	@ 0x9e
   e15c6:	719a      	strb	r2, [r3, #6]
   e15c8:	3a90      	subs	r2, #144	@ 0x90
   e15ca:	2108      	movs	r1, #8
   e15cc:	2000      	movs	r0, #0
   e15ce:	71da      	strb	r2, [r3, #7]
   e15d0:	f7ff ffd2 	bl	e1578 <usb_factory_set_response>
   e15d4:	bc10      	pop	{r4}
   e15d6:	bc01      	pop	{r0}
   e15d8:	4700      	bx	r0
   e15da:	f7ff ffd9 	bl	e1590 <usb_factory_set_failure>
   e15de:	e7f9      	b.n	e15d4 <cfw_factory_cmd_0x12_get_version+0x24>
   e15e0:	0200633c 	andeq	r6, r0, #60, 6	@ 0xf0000000
   e15e4:	00801241 	addeq	r1, r0, r1, asr #4

000e15e8 <cfw_factory_cmd_0x13_get_version>:
   e15e8:	b510      	push	{r4, lr}
   e15ea:	4b18      	ldr	r3, [pc, #96]	@ (e164c <cfw_factory_cmd_0x13_get_version+0x64>)
   e15ec:	78da      	ldrb	r2, [r3, #3]
   e15ee:	2aff      	cmp	r2, #255	@ 0xff
   e15f0:	d129      	bne.n	e1646 <cfw_factory_cmd_0x13_get_version+0x5e>
   e15f2:	7918      	ldrb	r0, [r3, #4]
   e15f4:	2800      	cmp	r0, #0
   e15f6:	d11e      	bne.n	e1636 <cfw_factory_cmd_0x13_get_version+0x4e>
   e15f8:	21b3      	movs	r1, #179	@ 0xb3
   e15fa:	3a5f      	subs	r2, #95	@ 0x5f
   e15fc:	715a      	strb	r2, [r3, #5]
   e15fe:	3a90      	subs	r2, #144	@ 0x90
   e1600:	719a      	strb	r2, [r3, #6]
   e1602:	0109      	lsls	r1, r1, #4
   e1604:	780a      	ldrb	r2, [r1, #0]
   e1606:	71da      	strb	r2, [r3, #7]
   e1608:	784a      	ldrb	r2, [r1, #1]
   e160a:	721a      	strb	r2, [r3, #8]
   e160c:	2253      	movs	r2, #83	@ 0x53
   e160e:	7258      	strb	r0, [r3, #9]
   e1610:	729a      	strb	r2, [r3, #10]
   e1612:	3216      	adds	r2, #22
   e1614:	72da      	strb	r2, [r3, #11]
   e1616:	3209      	adds	r2, #9
   e1618:	731a      	strb	r2, [r3, #12]
   e161a:	3a3c      	subs	r2, #60	@ 0x3c
   e161c:	735a      	strb	r2, [r3, #13]
   e161e:	3202      	adds	r2, #2
   e1620:	739a      	strb	r2, [r3, #14]
   e1622:	3233      	adds	r2, #51	@ 0x33
   e1624:	73da      	strb	r2, [r3, #15]
   e1626:	2112      	movs	r1, #18
   e1628:	7418      	strb	r0, [r3, #16]
   e162a:	7458      	strb	r0, [r3, #17]
   e162c:	f7ff ffa4 	bl	e1578 <usb_factory_set_response>
   e1630:	bc10      	pop	{r4}
   e1632:	bc01      	pop	{r0}
   e1634:	4700      	bx	r0
   e1636:	220a      	movs	r2, #10
   e1638:	701a      	strb	r2, [r3, #0]
   e163a:	32ea      	adds	r2, #234	@ 0xea
   e163c:	70da      	strb	r2, [r3, #3]
   e163e:	4b04      	ldr	r3, [pc, #16]	@ (e1650 <cfw_factory_cmd_0x13_get_version+0x68>)
   e1640:	3aef      	subs	r2, #239	@ 0xef
   e1642:	601a      	str	r2, [r3, #0]
   e1644:	e7f4      	b.n	e1630 <cfw_factory_cmd_0x13_get_version+0x48>
   e1646:	f7ff ffa3 	bl	e1590 <usb_factory_set_failure>
   e164a:	e7f1      	b.n	e1630 <cfw_factory_cmd_0x13_get_version+0x48>
   e164c:	0200633c 	andeq	r6, r0, #60, 6	@ 0xf0000000
   e1650:	02003448 	andeq	r3, r0, #72, 8	@ 0x48000000
   e1654:	616f4c20 	cmnvs	pc, r0, lsr #24
   e1658:	676e6964 	strbvs	r6, [lr, -r4, ror #18]!
   e165c:	00000000 	andeq	r0, r0, r0

000e1660 <cfw_custom_menu>:
   e1660:	00000002 	andeq	r0, r0, r2
   e1664:	000c7c7c 	andeq	r7, ip, ip, ror ip
   e1668:	000e16d0 			@ <UNDEFINED> instruction: 0x000e16d0
   e166c:	00000001 	andeq	r0, r0, r1
   e1670:	00000006 	andeq	r0, r0, r6
   e1674:	000c7c7c 	andeq	r7, ip, ip, ror ip
   e1678:	000c9554 	andeq	r9, ip, r4, asr r5
   e167c:	00000001 	andeq	r0, r0, r1
   e1680:	00000000 	andeq	r0, r0, r0
   e1684:	000c7c7c 	andeq	r7, ip, ip, ror ip
   e1688:	000c80d4 			@ <UNDEFINED> instruction: 0x000c80d4
   e168c:	00000001 	andeq	r0, r0, r1
   e1690:	00000005 	andeq	r0, r0, r5
   e1694:	000c93ec 	andeq	r9, ip, ip, ror #7
   e1698:	000c93a4 	andeq	r9, ip, r4, lsr #7
   e169c:	00000003 	andeq	r0, r0, r3
   e16a0:	0000000b 	andeq	r0, r0, fp
   e16a4:	000c7c7c 	andeq	r7, ip, ip, ror ip
   e16a8:	000c854c 	andeq	r8, ip, ip, asr #10
   e16ac:	00000001 	andeq	r0, r0, r1
   e16b0:	00000008 	andeq	r0, r0, r8
   e16b4:	000c7c7c 	andeq	r7, ip, ip, ror ip
   e16b8:	000c9aa4 	andeq	r9, ip, r4, lsr #21
   e16bc:	00000001 	andeq	r0, r0, r1
   e16c0:	ffffffff 			@ <UNDEFINED> instruction: 0xffffffff
	...

000e16d0 <cfw_menu_playback>:
   e16d0:	000e16e0 	andeq	r1, lr, r0, ror #13
   e16d4:	00000001 	andeq	r0, r0, r1
	...

000e16e0 <cfw_playback_menu>:
   e16e0:	00000202 	andeq	r0, r0, r2, lsl #4
   e16e4:	000c7c7c 	andeq	r7, ip, ip, ror ip
   e16e8:	000c920c 	andeq	r9, ip, ip, lsl #4
   e16ec:	00000003 	andeq	r0, r0, r3
   e16f0:	00000302 	andeq	r0, r0, r2, lsl #6
   e16f4:	000c7c7c 	andeq	r7, ip, ip, ror ip
   e16f8:	000c925c 	andeq	r9, ip, ip, asr r2
   e16fc:	00000003 	andeq	r0, r0, r3
   e1700:	ffffffff 			@ <UNDEFINED> instruction: 0xffffffff
	...

Disassembly of section .data:

00805e00 <decode_katakana-0x4>:
  805e00:	beba5cd1 	mrclt	12, 5, r5, cr10, cr1, {6}

00805e04 <decode_katakana>:
  805e04:	00000001 	andeq	r0, r0, r1

Disassembly of section .comment:

00000000 <.comment>:
   0:	3a434347 	bcc	10d0d24 <__bss_end__+0x8cad00>
   4:	72412820 	subvc	r2, r1, #32, 16	@ 0x200000
   8:	4e47206d 	cdpmi	0, 4, cr2, cr7, cr13, {3}
   c:	6f542055 	svcvs	0x00542055
  10:	68636c6f 	stmdavs	r3!, {r0, r1, r2, r3, r5, r6, sl, fp, sp, lr}^
  14:	206e6961 	rsbcs	r6, lr, r1, ror #18
  18:	322e3431 	eorcc	r3, lr, #822083584	@ 0x31000000
  1c:	6c65522e 	stclvs	2, cr5, [r5], #-184	@ 0xffffff48
  20:	42282031 	eormi	r2, r8, #49	@ 0x31
  24:	646c6975 	strbtvs	r6, [ip], #-2421	@ 0xfffff68b
  28:	6d726120 	ldclvs	1, cr6, [r2, #-128]!	@ 0xffffff80
  2c:	2e34312d 	cdpcs	1, 3, cr3, cr4, cr13, {1}
  30:	29293235 	stmdbcs	r9!, {r0, r2, r4, r5, r9, ip, sp}
  34:	2e343120 	cdpcs	1, 3, cr3, cr4, cr0, {1}
  38:	20312e32 	eorscs	r2, r1, r2, lsr lr
  3c:	34323032 	ldrtcc	r3, [r2], #-50	@ 0xffffffce
  40:	39313131 	ldmdbcc	r1!, {r0, r4, r5, r8, ip, sp}
	...

Disassembly of section .ARM.attributes:

00000000 <.ARM.attributes>:
   0:	00002941 	andeq	r2, r0, r1, asr #18
   4:	61656100 	cmnvs	r5, r0, lsl #2
   8:	01006962 	tsteq	r0, r2, ror #18
   c:	0000001f 	andeq	r0, r0, pc, lsl r0
  10:	00543405 	subseq	r3, r4, r5, lsl #8
  14:	01080206 	tsteq	r8, r6, lsl #4
  18:	04120109 	ldreq	r0, [r2], #-265	@ 0xfffffef7
  1c:	01150114 	tsteq	r5, r4, lsl r1
  20:	01180317 	tsteq	r8, r7, lsl r3
  24:	011a0119 	tsteq	sl, r9, lsl r1
  28:	Address 0x28 is out of bounds.

